; Function Attrs: mustprogress nounwind uwtable
define void @_ZN8proxygen15HTTPSessionBase15setSessionStatsEPNS_16HTTPSessionStatsE(ptr nocapture noundef nonnull align 8 dereferenceable(1582) %this, ptr noundef %stats) unnamed_addr #5 align 2 {
entry:
  %sessionStats_ = getelementptr inbounds i8, ptr %this, i64 208
  %0 = load ptr, ptr %sessionStats_, align 8
  %cmp.not = icmp eq ptr %0, %stats
  %cmp3.not = icmp eq ptr %0, null
  %or.cond = or i1 %cmp.not, %cmp3.not
  br i1 %or.cond, label %if.end, label %if.then

if.then:                                          ; preds = %entry
  %pendingWriteSize_ = getelementptr inbounds i8, ptr %this, i64 1560
  %1 = load i64, ptr %pendingWriteSize_, align 8
  %mul = sub nsw i64 0, %1
  %vtable = load ptr, ptr %0, align 8
  %vfn = getelementptr inbounds i8, ptr %vtable, i64 176
  %2 = load ptr, ptr %vfn, align 8
  tail call void %2(ptr noundef nonnull align 8 dereferenceable(8) %0, i64 noundef %mul) #21
  %3 = load ptr, ptr %sessionStats_, align 8
  %pendingReadSize_ = getelementptr inbounds i8, ptr %this, i64 1576
  %4 = load i32, ptr %pendingReadSize_, align 8
  %conv = zext i32 %4 to i64
  %mul6 = sub nsw i64 0, %conv
  %vtable7 = load ptr, ptr %3, align 8
  %vfn8 = getelementptr inbounds i8, ptr %vtable7, i64 168
  %5 = load ptr, ptr %vfn8, align 8
  tail call void %5(ptr noundef nonnull align 8 dereferenceable(8) %3, i64 noundef %mul6) #21
  br label %if.end

if.end:                                           ; preds = %if.then, %entry
  store ptr %stats, ptr %sessionStats_, align 8
  %tobool.not = icmp eq ptr %stats, null
  br i1 %tobool.not, label %if.end21, label %if.then11

if.then11:                                        ; preds = %if.end
  %pendingWriteSize_13 = getelementptr inbounds i8, ptr %this, i64 1560
  %6 = load i64, ptr %pendingWriteSize_13, align 8
  %vtable14 = load ptr, ptr %stats, align 8
  %vfn15 = getelementptr inbounds i8, ptr %vtable14, i64 176
  %7 = load ptr, ptr %vfn15, align 8
  tail call void %7(ptr noundef nonnull align 8 dereferenceable(8) %stats, i64 noundef %6) #21
  %8 = load ptr, ptr %sessionStats_, align 8
  %pendingReadSize_17 = getelementptr inbounds i8, ptr %this, i64 1576
  %9 = load i32, ptr %pendingReadSize_17, align 8
  %conv18 = zext i32 %9 to i64
  %vtable19 = load ptr, ptr %8, align 8
  %vfn20 = getelementptr inbounds i8, ptr %vtable19, i64 168
  %10 = load ptr, ptr %vfn20, align 8
  tail call void %10(ptr noundef nonnull align 8 dereferenceable(8) %8, i64 noundef %conv18) #21
  br label %if.end21

if.end21:                                         ; preds = %if.then11, %if.end
  ret void
}